(dp1
S'sg_version_data'
p2
(dp3
S'code'
p4
S'v0.9.3'
p5
sS'description'
p6
S'Now ensures that the work file folder exists when saving the next work file version during publishing.'
p7
sS'tags'
p8
(lp9
sS'sg_payload'
p10
(dp11
S'name'
p12
S'tk-maya_v0.9.3.zip'
p13
sS'url'
p14
S'https://tank.shotgunstudio.com/file_serve/attachment/19904'
p15
sS'content_type'
p16
S'application/zip'
p17
sS'type'
p18
S'Attachment'
p19
sS'id'
p20
I19904
sS'link_type'
p21
S'upload'
p22
ssS'sg_status_list'
p23
S'prod'
p24
sS'sg_detailed_release_notes'
p25
(dp26
S'name'
p27
S'v0.9.3'
p28
sS'url'
p29
S'https://support.shotgunsoftware.com/hc/en-us/articles/219032818#v0.9.3'
p30
sS'content_type'
p31
NsS'type'
p32
S'Attachment'
p33
sS'id'
p34
I19901
sS'link_type'
p35
S'web'
p36
ssS'sg_documentation'
p37
(dp38
S'name'
p39
S'Documentation'
p40
sS'url'
p41
S'https://support.shotgunsoftware.com/hc/en-us/articles/219032818'
p42
sS'content_type'
p43
NsS'type'
p44
S'Attachment'
p45
sS'id'
p46
I19903
sS'link_type'
p47
S'web'
p48
ssS'type'
p49
S'CustomNonProjectEntity04'
p50
sS'id'
p51
I948
ssS'sg_bundle_data'
p52
(dp53
S'sg_status_list'
p54
S'depl'
p55
sS'type'
p56
S'CustomNonProjectEntity03'
p57
sS'id'
p58
I4
sS'sg_system_name'
p59
S'tk-maya'
p60
sS'sg_deprecation_message'
p61
Nss.