(dp1
S'sg_version_data'
p2
(dp3
S'code'
p4
S'v1.9.1'
p5
sS'description'
p6
S'Update to tk-flame v1.14.4'
p7
sS'tags'
p8
(lp9
sS'sg_payload'
p10
(dp11
S'name'
p12
S'tk-flame-export_v1.9.1.zip'
p13
sS'url'
p14
S'https://tank.shotgunstudio.com/file_serve/attachment/20367'
p15
sS'content_type'
p16
S'application/zip'
p17
sS'type'
p18
S'Attachment'
p19
sS'id'
p20
I20367
sS'link_type'
p21
S'upload'
p22
ssS'sg_status_list'
p23
S'prod'
p24
sS'sg_detailed_release_notes'
p25
(dp26
S'name'
p27
S'v1.9.1'
p28
sS'url'
p29
S'https://support.shotgunsoftware.com/hc/en-us/articles/219041148%23v1.9.1'
p30
sS'content_type'
p31
NsS'type'
p32
S'Attachment'
p33
sS'id'
p34
I20364
sS'link_type'
p35
S'web'
p36
ssS'sg_documentation'
p37
(dp38
S'name'
p39
S'Documentation'
p40
sS'url'
p41
S'https://support.shotgunsoftware.com/hc/en-us/articles/219041148'
p42
sS'content_type'
p43
NsS'type'
p44
S'Attachment'
p45
sS'id'
p46
I20366
sS'link_type'
p47
S'web'
p48
ssS'type'
p49
S'CustomNonProjectEntity05'
p50
sS'id'
p51
I2822
ssS'sg_bundle_data'
p52
(dp53
S'sg_status_list'
p54
S'depl'
p55
sS'type'
p56
S'CustomNonProjectEntity02'
p57
sS'id'
p58
I142
sS'sg_system_name'
p59
S'tk-flame-export'
p60
sS'sg_deprecation_message'
p61
Nss.