(dp1
S'sg_version_data'
p2
(dp3
S'code'
p4
S'v0.1.5'
p5
sS'description'
p6
S'Renames and support for the new name Sgtk.'
p7
sS'tags'
p8
(lp9
sS'sg_payload'
p10
(dp11
S'name'
p12
S'tk-shotgun-launchfolder_v0.1.5.zip'
p13
sS'url'
p14
S'https://tank.shotgunstudio.com/file_serve/attachment/3020'
p15
sS'content_type'
p16
S'application/zip'
p17
sS'type'
p18
S'Attachment'
p19
sS'id'
p20
I3020
sS'link_type'
p21
S'upload'
p22
ssS'sg_status_list'
p23
S'beta'
p24
sS'sg_detailed_release_notes'
p25
(dp26
S'name'
p27
S'v0.1.5'
p28
sS'url'
p29
S'https://tank.shotgunsoftware.com/entries/22145878#v0.1.5'
p30
sS'content_type'
p31
NsS'type'
p32
S'Attachment'
p33
sS'id'
p34
I3017
sS'link_type'
p35
S'web'
p36
ssS'sg_documentation'
p37
(dp38
S'name'
p39
S'Documentation'
p40
sS'url'
p41
S'https://tank.shotgunsoftware.com/entries/22145878'
p42
sS'content_type'
p43
NsS'type'
p44
S'Attachment'
p45
sS'id'
p46
I3018
sS'link_type'
p47
S'web'
p48
ssS'type'
p49
S'CustomNonProjectEntity05'
p50
sS'id'
p51
I448
ssS'sg_bundle_data'
p52
(dp53
S'sg_status_list'
p54
S'depl'
p55
sS'type'
p56
S'CustomNonProjectEntity02'
p57
sS'id'
p58
I16
sS'sg_system_name'
p59
S'tk-shotgun-launchfolder'
p60
sS'sg_deprecation_message'
p61
Nss.